target datalayout = "e-m:e-p270:32:32-p271:32:32-p272:64:64-i64:64-i128:128-f80:128-n8:16:32:64-S128"
target triple = "x86_64-unknown-linux-gnu"

%struct.QTailQLink = type { ptr, ptr }
%struct.BlockDriverState = type { i32, i8, i8, i8, i8, i8, ptr, ptr, ptr, %struct.anon.0, i8, [4096 x i8], [4096 x i8], [4096 x i8], [16 x i8], ptr, [4096 x i8], %struct.BlockLimits, i32, i32, i32, i32, [32 x i8], %union.anon.1, %union.anon.2, %union.anon.3, i32, [16 x %struct.anon.4], ptr, %struct.anon.5, ptr, ptr, %struct.anon.6, ptr, ptr, i32, ptr, i64, i64, %struct.QemuMutex, %struct.anon.7, %struct.Stat64, i32, i32, i32, i32, i32, i32, %struct.QemuMutex, %struct.anon.8, %struct.CoQueue, i8, i32, i8, %struct.CoMutex, ptr, ptr }
%struct.anon.0 = type { ptr }
%struct.BlockLimits = type { i32, i64, i32, i64, i32, i32, i32, i64, i32, i64, i64, i32, i8, i32, i32, i32, i32, i32, i32, i32 }
%union.anon.1 = type { %struct.QTailQLink }
%union.anon.2 = type { %struct.QTailQLink }
%union.anon.3 = type { %struct.QTailQLink }
%struct.anon.4 = type { ptr }
%struct.anon.5 = type { ptr }
%struct.anon.6 = type { ptr }
%struct.anon.7 = type { ptr }
%struct.Stat64 = type { i64 }
%struct.QemuMutex = type { %union.pthread_mutex_t, i8 }
%union.pthread_mutex_t = type { %struct.__pthread_mutex_s }
%struct.__pthread_mutex_s = type { i32, i32, i32, i32, i32, i16, i16, %struct.__pthread_internal_list }
%struct.__pthread_internal_list = type { ptr, ptr }
%struct.anon.8 = type { ptr }
%struct.CoQueue = type { %struct.anon.9 }
%struct.anon.9 = type { ptr, ptr }
%struct.CoMutex = type { i32, ptr, %struct.anon.10, %struct.anon.10, i32, i32, ptr }
%struct.anon.10 = type { ptr }
%struct.BdrvChild = type { ptr, ptr, ptr, i32, ptr, i64, i64, i8, i8, %struct.anon.11, %struct.anon.12 }
%struct.anon.11 = type { ptr, ptr }
%struct.anon.12 = type { ptr, ptr }
%struct.BDRVParallelsState = type { %struct.CoMutex, ptr, i32, i8, ptr, i32, ptr, i64, ptr, i32, i64, i64, i64, i32, i32, i32, i32, ptr }

; Function Attrs: nounwind sspstrong uwtable
define internal i32 @parallels_update_header(ptr noundef %bs) #0 {
entry:
  %bs.addr = alloca ptr, align 8
  %s = alloca ptr, align 8
  %size = alloca i32, align 4
  %_a8 = alloca i64, align 8
  %_b9 = alloca i64, align 8
  %tmp = alloca i64, align 8
  store ptr %bs, ptr %bs.addr, align 8
  %0 = load ptr, ptr %bs.addr, align 8
  %opaque = getelementptr inbounds %struct.BlockDriverState, ptr %0, i32 0, i32 7
  %1 = load ptr, ptr %opaque, align 8
  store ptr %1, ptr %s, align 8
  %2 = load ptr, ptr %bs.addr, align 8
  %file = getelementptr inbounds %struct.BlockDriverState, ptr %2, i32 0, i32 31
  %3 = load ptr, ptr %file, align 8
  %bs1 = getelementptr inbounds %struct.BdrvChild, ptr %3, i32 0, i32 0
  %4 = load ptr, ptr %bs1, align 8
  %call = call i64 @bdrv_opt_mem_align(ptr noundef %4)
  store i64 %call, ptr %_a8, align 8
  store i64 64, ptr %_b9, align 8
  %5 = load i64, ptr %_a8, align 8
  %6 = load i64, ptr %_b9, align 8
  %cmp = icmp ugt i64 %5, %6
  br i1 %cmp, label %cond.true, label %cond.false

cond.true:                                        ; preds = %entry
  %7 = load i64, ptr %_a8, align 8
  br label %cond.end

cond.false:                                       ; preds = %entry
  %8 = load i64, ptr %_b9, align 8
  br label %cond.end

cond.end:                                         ; preds = %cond.false, %cond.true
  %cond = phi i64 [ %7, %cond.true ], [ %8, %cond.false ]
  store i64 %cond, ptr %tmp, align 8
  %9 = load i64, ptr %tmp, align 8
  %conv = trunc i64 %9 to i32
  store i32 %conv, ptr %size, align 4
  %10 = load i32, ptr %size, align 4
  %11 = load ptr, ptr %s, align 8
  %header_size = getelementptr inbounds %struct.BDRVParallelsState, ptr %11, i32 0, i32 2
  %12 = load i32, ptr %header_size, align 8
  %cmp2 = icmp ugt i32 %10, %12
  br i1 %cmp2, label %if.then, label %if.end

if.then:                                          ; preds = %cond.end
  %13 = load ptr, ptr %s, align 8
  %header_size4 = getelementptr inbounds %struct.BDRVParallelsState, ptr %13, i32 0, i32 2
  %14 = load i32, ptr %header_size4, align 8
  store i32 %14, ptr %size, align 4
  br label %if.end

if.end:                                           ; preds = %if.then, %cond.end
  %15 = load ptr, ptr %bs.addr, align 8
  %file5 = getelementptr inbounds %struct.BlockDriverState, ptr %15, i32 0, i32 31
  %16 = load ptr, ptr %file5, align 8
  %17 = load i32, ptr %size, align 4
  %conv6 = zext i32 %17 to i64
  %18 = load ptr, ptr %s, align 8
  %header = getelementptr inbounds %struct.BDRVParallelsState, ptr %18, i32 0, i32 1
  %19 = load ptr, ptr %header, align 8
  %call7 = call i32 @bdrv_pwrite_sync(ptr noundef %16, i64 noundef 0, i64 noundef %conv6, ptr noundef %19, i32 noundef 0)
  ret i32 %call7
}