; Function Attrs: nounwind sspstrong uwtable
define internal fastcc i32 @parallels_update_header(ptr noundef readonly captures(none) %bs) unnamed_addr #0 {
entry:
  %opaque = getelementptr inbounds nuw i8, ptr %bs, i64 24
  %0 = load ptr, ptr %opaque, align 8
  %file = getelementptr inbounds nuw i8, ptr %bs, i64 16840
  %1 = load ptr, ptr %file, align 8
  %2 = load ptr, ptr %1, align 8
  %call = tail call i64 @bdrv_opt_mem_align(ptr noundef %2) #16
  %cond = tail call i64 @llvm.umax.i64(i64 %call, i64 64)
  %conv = trunc i64 %cond to i32
  %header_size = getelementptr inbounds nuw i8, ptr %0, i64 56
  %3 = load i32, ptr %header_size, align 8
  %spec.select = tail call i32 @llvm.umin.i32(i32 %3, i32 %conv)
  %4 = load ptr, ptr %file, align 8
  %conv6 = zext i32 %spec.select to i64
  %header = getelementptr inbounds nuw i8, ptr %0, i64 48
  %5 = load ptr, ptr %header, align 8
  %call7 = tail call i32 @bdrv_pwrite_sync(ptr noundef %4, i64 noundef 0, i64 noundef %conv6, ptr noundef %5, i32 noundef 0) #16
  ret i32 %call7
}